BL51 BANKED LINKER/LOCATER V6.05                                                        05/29/2017  18:49:16  PAGE 1


BL51 BANKED LINKER/LOCATER V6.05, INVOKED BY:
C:\KEIL\C51\BIN\BL51.EXE ..\output\DHT11.obj, ..\output\main.obj, ..\output\LCD12864.obj TO ..\output\DHT11Test PRINT (.
>> \DHT11Test.m51) RAMSIZE (256)


MEMORY MODEL: SMALL


INPUT MODULES INCLUDED:
  ..\output\DHT11.obj (DHT11)
  ..\output\main.obj (MAIN)
  ..\output\LCD12864.obj (LCD12864)
  C:\KEIL\C51\LIB\C51S.LIB (?C_STARTUP)
  C:\KEIL\C51\LIB\C51S.LIB (?C?CLDPTR)
  C:\KEIL\C51\LIB\C51S.LIB (?C?CSTPTR)
  C:\KEIL\C51\LIB\C51S.LIB (?C?ILDPTR)
  C:\KEIL\C51\LIB\C51S.LIB (?C?ULSHR)
  C:\KEIL\C51\LIB\C51S.LIB (?C?LSHL)


LINK MAP OF MODULE:  ..\output\DHT11Test (DHT11)


            TYPE    BASE      LENGTH    RELOCATION   SEGMENT NAME
            -----------------------------------------------------

            * * * * * * *   D A T A   M E M O R Y   * * * * * * *
            REG     0000H     0008H     ABSOLUTE     "REG BANK 0"
            DATA    0008H     0013H     UNIT         _DATA_GROUP_
            DATA    001BH     0004H     UNIT         ?DT?_LCDDRAWAREA?LCD12864
                    001FH     0001H                  *** GAP ***
            BIT     0020H.0   0000H.2   UNIT         _BIT_GROUP_
                    0020H.2   0000H.6                *** GAP ***
            DATA    0021H     0003H     UNIT         ?DT?_LCDSHOWIMAGE?LCD12864
            IDATA   0024H     0001H     UNIT         ?STACK

            * * * * * * *   C O D E   M E M O R Y   * * * * * * *
            CODE    0000H     0003H     ABSOLUTE     
            CODE    0003H     00AAH     UNIT         ?PR?_DHT11GETDATA?DHT11
            CODE    00ADH     0092H     UNIT         ?PR?_LCDDRAWAREA?LCD12864
            CODE    013FH     0086H     UNIT         ?PR?MAIN?MAIN
            CODE    01C5H     0086H     UNIT         ?PR?_LCDSHOWIMAGE?LCD12864
            CODE    024BH     007CH     UNIT         ?C?LIB_CODE
            CODE    02C7H     0073H     UNIT         ?PR?_LCDCLEARIMAGE?LCD12864
            CODE    033AH     0072H     UNIT         ?CO?LCD12864
            CODE    03ACH     0058H     UNIT         ?PR?LCDINITIMAGE?LCD12864
            CODE    0404H     004DH     UNIT         ?PR?_LCDSHOWCN?LCD12864
            CODE    0451H     002BH     UNIT         ?PR?_LCDSETCURSOR?LCD12864
            CODE    047CH     0022H     UNIT         ?PR?_LCDSHOWSTR?LCD12864
            CODE    049EH     001EH     UNIT         ?PR?INITLCD12864?LCD12864
            CODE    04BCH     001AH     UNIT         ?PR?DHT11GETACK?DHT11
            CODE    04D6H     0019H     UNIT         ?PR?_LCDWRITECMD?LCD12864
            CODE    04EFH     0019H     UNIT         ?PR?LCDCLEARALL?LCD12864
            CODE    0508H     0016H     UNIT         ?PR?_LCDWRITEDATA?LCD12864
            CODE    051EH     0012H     UNIT         ?PR?LCDWAITREADY?LCD12864
            CODE    0530H     000FH     UNIT         ?PR?_LCDCLEARAREA?LCD12864
            CODE    053FH     000CH     UNIT         ?PR?_DELAYX10US?DHT11
            CODE    054BH     000CH     UNIT         ?C_C51STARTUP
BL51 BANKED LINKER/LOCATER V6.05                                                      05/29/2017  18:49:16  PAGE 2


            CODE    0557H     000BH     UNIT         ?PR?CONFIGUREDHT11?DHT11
            CODE    0562H     0005H     UNIT         ?PR?LCDSHOWCURSOR?LCD12864
            CODE    0567H     0005H     UNIT         ?PR?LCDCANCELCURSOR?LCD12864



OVERLAY MAP OF MODULE:   ..\output\DHT11Test (DHT11)


SEGMENT                                 BIT_GROUP          DATA_GROUP 
  +--> CALLED SEGMENT                START    LENGTH     START    LENGTH
------------------------------------------------------------------------
?C_C51STARTUP                        -----    -----      -----    -----
  +--> ?PR?MAIN?MAIN

?PR?MAIN?MAIN                        -----    -----      0008H    0008H
  +--> ?PR?INITLCD12864?LCD12864
  +--> ?PR?CONFIGUREDHT11?DHT11
  +--> ?PR?_DHT11GETDATA?DHT11
  +--> ?PR?_LCDSHOWCN?LCD12864

?PR?INITLCD12864?LCD12864            -----    -----      -----    -----
  +--> ?PR?_LCDWRITECMD?LCD12864
  +--> ?CO?LCD12864
  +--> ?PR?_LCDSHOWSTR?LCD12864

?PR?_LCDWRITECMD?LCD12864            -----    -----      -----    -----
  +--> ?PR?LCDWAITREADY?LCD12864

?PR?_LCDSHOWSTR?LCD12864             -----    -----      0010H    0006H
  +--> ?PR?_LCDSETCURSOR?LCD12864
  +--> ?PR?_LCDWRITEDATA?LCD12864

?PR?_LCDSETCURSOR?LCD12864           -----    -----      -----    -----
  +--> ?PR?_LCDWRITECMD?LCD12864

?PR?_LCDWRITEDATA?LCD12864           -----    -----      -----    -----
  +--> ?PR?LCDWAITREADY?LCD12864

?PR?_DHT11GETDATA?DHT11              0020H.0  0000H.1    0010H    000BH
  +--> ?PR?DHT11GETACK?DHT11
  +--> ?PR?_DELAYX10US?DHT11

?PR?DHT11GETACK?DHT11                0020H.1  0000H.1    -----    -----
  +--> ?PR?_DELAYX10US?DHT11

?PR?_LCDSHOWCN?LCD12864              -----    -----      0010H    0006H
  +--> ?PR?_LCDSETCURSOR?LCD12864
  +--> ?PR?_LCDWRITEDATA?LCD12864



SYMBOL TABLE OF MODULE:  ..\output\DHT11Test (DHT11)

  VALUE           TYPE          NAME
  ----------------------------------

BL51 BANKED LINKER/LOCATER V6.05                                                      05/29/2017  18:49:16  PAGE 3


  -------         MODULE        DHT11
  C:0000H         SYMBOL        _ICE_DUMMY_
  D:0090H         PUBLIC        P1
  D:00A0H         PUBLIC        P2
  D:00B0H         PUBLIC        P3
  B:00A8H.7       PUBLIC        EA
  D:00A8H         PUBLIC        IE
  C:053FH         PUBLIC        _DelayX10us
  D:00B8H         PUBLIC        IP
  D:0098H         PUBLIC        SCON
  D:0089H         PUBLIC        TMOD
  D:0088H         PUBLIC        TCON
  C:04BCH         PUBLIC        DHT11GetACK
  B:00B0H.2       PUBLIC        DHT11_DATA
  B:00A8H.3       PUBLIC        ET1
  D:008BH         PUBLIC        TL1
  B:00B8H.3       PUBLIC        PT1
  B:0088H.6       PUBLIC        TR1
  C:0003H         PUBLIC        _DHT11GetData
  D:00C8H         PUBLIC        T2CON
  C:0557H         PUBLIC        ConfigureDHT11
  D:00D0H         PUBLIC        PSW
  -------         PROC          _DELAYX10US
  D:0006H         SYMBOL        x
  C:053FH         LINE#         6
  C:053FH         LINE#         7
  C:053FH         LINE#         9
  C:053FH         LINE#         10
  C:0540H         LINE#         11
  C:0541H         LINE#         12
  C:054AH         LINE#         13
  -------         ENDPROC       _DELAYX10US
  -------         PROC          DHT11GETACK
  -------         DO            
  B:0020H.1       SYMBOL        ack
  -------         ENDDO         
  C:04BCH         LINE#         15
  C:04BCH         LINE#         16
  C:04BCH         LINE#         19
  C:04BEH         LINE#         20
  C:04C5H         LINE#         21
  C:04C7H         LINE#         22
  C:04CEH         LINE#         23
  C:04D2H         LINE#         25
  C:04D5H         LINE#         26
  -------         ENDPROC       DHT11GETACK
  -------         PROC          _DHT11GETDATA
  D:0001H         SYMBOL        humi
  D:0013H         SYMBOL        temp
  -------         DO            
  B:0020H.0       SYMBOL        ack
  D:0016H         SYMBOL        cnt
  D:0017H         SYMBOL        mdat
  -------         ENDDO         
  C:0003H         LINE#         29
  C:0003H         LINE#         30
  C:0003H         LINE#         32
BL51 BANKED LINKER/LOCATER V6.05                                                      05/29/2017  18:49:16  PAGE 4


  C:0006H         LINE#         33
  C:000FH         LINE#         35
  C:0014H         LINE#         36
  C:001AH         LINE#         37
  C:001DH         LINE#         38
  C:0024H         LINE#         40
  C:002BH         LINE#         41
  C:002EH         LINE#         42
  C:0030H         LINE#         43
  C:0033H         LINE#         44
  C:0035H         LINE#         45
  C:0038H         LINE#         46
  C:003AH         LINE#         47
  C:003CH         LINE#         48
  C:0043H         LINE#         49
  C:0058H         LINE#         50
  C:005AH         LINE#         51
  C:006FH         LINE#         52
  C:0081H         LINE#         53
  C:0081H         LINE#         54
  C:0083H         LINE#         56
  C:0094H         LINE#         57
  C:00ABH         LINE#         58
  C:00ACH         LINE#         59
  -------         ENDPROC       _DHT11GETDATA
  -------         PROC          CONFIGUREDHT11
  C:0557H         LINE#         61
  C:0557H         LINE#         62
  C:0557H         LINE#         63
  C:055AH         LINE#         64
  C:055DH         LINE#         66
  C:055FH         LINE#         67
  C:0561H         LINE#         68
  -------         ENDPROC       CONFIGUREDHT11
  -------         ENDMOD        DHT11

  -------         MODULE        MAIN
  C:0000H         SYMBOL        _ICE_DUMMY_
  D:0090H         PUBLIC        P1
  D:00A0H         PUBLIC        P2
  D:00B0H         PUBLIC        P3
  D:00A8H         PUBLIC        IE
  D:00B8H         PUBLIC        IP
  C:013FH         PUBLIC        main
  D:0098H         PUBLIC        SCON
  D:0088H         PUBLIC        TCON
  D:00C8H         PUBLIC        T2CON
  D:00D0H         PUBLIC        PSW
  -------         PROC          MAIN
  -------         DO            
  D:0008H         SYMBOL        temp
  D:0009H         SYMBOL        humi
  D:000AH         SYMBOL        dat
  -------         ENDDO         
  C:013FH         LINE#         5
  C:013FH         LINE#         6
  C:013FH         LINE#         10
BL51 BANKED LINKER/LOCATER V6.05                                                      05/29/2017  18:49:16  PAGE 5


  C:0142H         LINE#         11
  C:0145H         LINE#         12
  C:0157H         LINE#         14
  C:0166H         LINE#         15
  C:0177H         LINE#         16
  C:017DH         LINE#         17
  C:018DH         LINE#         19
  C:019CH         LINE#         20
  C:01ADH         LINE#         21
  C:01B3H         LINE#         22
  C:01C3H         LINE#         24
  -------         ENDPROC       MAIN
  -------         ENDMOD        MAIN

  -------         MODULE        LCD12864
  C:0000H         SYMBOL        _ICE_DUMMY_
  D:0080H         PUBLIC        P0
  D:0090H         PUBLIC        P1
  D:00A0H         PUBLIC        P2
  D:00B0H         PUBLIC        P3
  C:0451H         PUBLIC        _LCDSetCursor
  C:0404H         PUBLIC        _LCDShowCN
  D:00A8H         PUBLIC        IE
  D:00B8H         PUBLIC        IP
  C:0567H         PUBLIC        LCDCancelCursor
  C:037CH         PUBLIC        moonImage
  C:02C7H         PUBLIC        _LCDClearImage
  C:047CH         PUBLIC        _LCDShowStr
  D:0098H         PUBLIC        SCON
  D:0088H         PUBLIC        TCON
  C:0530H         PUBLIC        _LCDClearArea
  C:035CH         PUBLIC        sunImage
  B:0090H.5       PUBLIC        LCD12864_EN
  C:03ACH         PUBLIC        LCDInitImage
  C:04EFH         PUBLIC        LCDClearAll
  C:01C5H         PUBLIC        _LCDShowImage
  C:050EH         PUBLIC        _LCDWriteData
  C:00ADH         PUBLIC        _LCDDrawArea
  B:0090H.0       PUBLIC        LCD12864_RS
  C:051EH         PUBLIC        LCDWaitReady
  B:0090H.1       PUBLIC        LCD12864_RW
  D:00C8H         PUBLIC        T2CON
  C:049EH         PUBLIC        InitLCD12864
  C:033CH         PUBLIC        clockImage
  C:04DFH         PUBLIC        _LCDWriteCmd
  C:0562H         PUBLIC        LCDShowCursor
  D:00D0H         PUBLIC        PSW
  -------         PROC          LCDWAITREADY
  -------         DO            
  D:0007H         SYMBOL        tmp
  -------         ENDDO         
  C:051EH         LINE#         20
  C:051EH         LINE#         21
  C:051EH         LINE#         22
  C:051EH         LINE#         24
  C:0520H         LINE#         25
  C:0522H         LINE#         26
BL51 BANKED LINKER/LOCATER V6.05                                                      05/29/2017  18:49:16  PAGE 6


  C:0522H         LINE#         27
  C:0524H         LINE#         28
  C:0529H         LINE#         29
  C:052BH         LINE#         30
  C:052DH         LINE#         31
  C:052FH         LINE#         32
  -------         ENDPROC       LCDWAITREADY
  -------         PROC          L?0082
  -------         ENDPROC       L?0082
  -------         PROC          _LCDWRITECMD
  D:0006H         SYMBOL        cmd
  C:04DFH         LINE#         34
  C:04E1H         LINE#         35
  C:04E1H         LINE#         36
  C:04E4H         LINE#         37
  C:04E6H         LINE#         38
  C:04E8H         LINE#         39
  C:04EAH         LINE#         40
  C:04ECH         LINE#         41
  C:04EEH         LINE#         42
  -------         ENDPROC       _LCDWRITECMD
  C:0508H         SYMBOL        L?0081
  -------         PROC          L?0080
  -------         ENDPROC       L?0080
  C:0508H         SYMBOL        L?0081
  -------         PROC          _LCDWRITEDATA
  D:0006H         SYMBOL        dat
  C:050EH         LINE#         44
  C:0510H         LINE#         45
  C:0510H         LINE#         46
  C:0513H         LINE#         47
  C:0515H         LINE#         48
  C:0517H         LINE#         49
  C:0519H         LINE#         50
  C:051BH         LINE#         51
  C:051DH         LINE#         52
  -------         ENDPROC       _LCDWRITEDATA
  -------         PROC          INITLCD12864
  C:049EH         LINE#         54
  C:049EH         LINE#         55
  C:049EH         LINE#         56
  C:04A3H         LINE#         57
  C:04A8H         LINE#         58
  C:04ADH         LINE#         59
  -------         ENDPROC       INITLCD12864
  -------         PROC          _LCDSHOWSTR
  D:0007H         SYMBOL        x
  D:0005H         SYMBOL        y
  D:0012H         SYMBOL        str
  D:0015H         SYMBOL        strlen
  C:047CH         LINE#         62
  C:0482H         LINE#         63
  C:0482H         LINE#         64
  C:0485H         LINE#         65
  C:0485H         LINE#         66
  C:0494H         LINE#         67
  C:0496H         LINE#         68
BL51 BANKED LINKER/LOCATER V6.05                                                      05/29/2017  18:49:16  PAGE 7


  C:049DH         LINE#         69
  -------         ENDPROC       _LCDSHOWSTR
  -------         PROC          _LCDSHOWCN
  D:0010H         SYMBOL        x
  D:0011H         SYMBOL        y
  D:0012H         SYMBOL        str
  D:0015H         SYMBOL        strlen
  -------         DO            
  D:0003H         SYMBOL        msb
  D:0005H         SYMBOL        lsb
  -------         ENDDO         
  C:0404H         LINE#         71
  C:040EH         LINE#         72
  C:040EH         LINE#         75
  C:0418H         LINE#         76
  C:041FH         LINE#         77
  C:0421H         LINE#         78
  C:0428H         LINE#         79
  C:042BH         LINE#         80
  C:042DH         LINE#         81
  C:042DH         LINE#         82
  C:043AH         LINE#         83
  C:043AH         LINE#         84
  C:043EH         LINE#         85
  C:0443H         LINE#         86
  C:044EH         LINE#         87
  C:0450H         LINE#         88
  -------         ENDPROC       _LCDSHOWCN
  -------         PROC          _LCDSETCURSOR
  D:0006H         SYMBOL        x
  D:0005H         SYMBOL        y
  -------         DO            
  D:0007H         SYMBOL        pos
  -------         ENDDO         
  C:0451H         LINE#         90
  C:0453H         LINE#         91
  C:0453H         LINE#         92
  C:0455H         LINE#         94
  C:0463H         LINE#         95
  C:0463H         LINE#         96
  C:0463H         LINE#         97
  C:0467H         LINE#         98
  C:0469H         LINE#         99
  C:0469H         LINE#         100
  C:046DH         LINE#         101
  C:046FH         LINE#         102
  C:046FH         LINE#         103
  C:0473H         LINE#         104
  C:0475H         LINE#         105
  C:0475H         LINE#         106
  C:0479H         LINE#         107
  C:0479H         LINE#         108
  C:0479H         LINE#         109
  C:0479H         LINE#         110
  C:0479H         LINE#         111
  -------         ENDPROC       _LCDSETCURSOR
  -------         PROC          LCDSHOWCURSOR
BL51 BANKED LINKER/LOCATER V6.05                                                      05/29/2017  18:49:16  PAGE 8


  C:0562H         LINE#         114
  C:0562H         LINE#         115
  C:0562H         LINE#         116
  -------         ENDPROC       LCDSHOWCURSOR
  -------         PROC          LCDCANCELCURSOR
  C:0567H         LINE#         119
  C:0567H         LINE#         120
  C:0567H         LINE#         121
  -------         ENDPROC       LCDCANCELCURSOR
  -------         PROC          LCDCLEARALL
  C:04EFH         LINE#         124
  C:04EFH         LINE#         125
  C:04EFH         LINE#         126
  C:04F4H         LINE#         127
  C:04F9H         LINE#         128
  -------         ENDPROC       LCDCLEARALL
  -------         PROC          _LCDSHOWIMAGE
  D:0021H         SYMBOL        image
  -------         DO            
  D:0004H         SYMBOL        i
  D:0005H         SYMBOL        j
  -------         ENDDO         
  C:01C5H         LINE#         131
  C:01CBH         LINE#         132
  C:01CBH         LINE#         135
  C:01D0H         LINE#         136
  C:01D5H         LINE#         137
  C:01D7H         LINE#         138
  C:01DEH         LINE#         139
  C:01E3H         LINE#         140
  C:01E5H         LINE#         141
  C:01E5H         LINE#         142
  C:01F4H         LINE#         143
  C:0203H         LINE#         144
  C:0207H         LINE#         145
  C:020BH         LINE#         147
  C:020DH         LINE#         148
  C:0214H         LINE#         149
  C:0219H         LINE#         150
  C:021BH         LINE#         151
  C:021BH         LINE#         152
  C:022AH         LINE#         153
  C:0239H         LINE#         154
  C:023DH         LINE#         155
  C:0241H         LINE#         156
  C:0246H         LINE#         157
  -------         ENDPROC       _LCDSHOWIMAGE
  -------         PROC          _LCDDRAWAREA
  D:001BH         SYMBOL        x
  D:0005H         SYMBOL        y
  D:001CH         SYMBOL        image
  -------         DO            
  D:0004H         SYMBOL        i
  -------         ENDDO         
  C:00ADH         LINE#         160
  C:00B5H         LINE#         161
  C:00B5H         LINE#         164
BL51 BANKED LINKER/LOCATER V6.05                                                      05/29/2017  18:49:16  PAGE 9


  C:00BAH         LINE#         165
  C:00BFH         LINE#         167
  C:00C5H         LINE#         168
  C:00C7H         LINE#         169
  C:00CEH         LINE#         170
  C:00D1H         LINE#         172
  C:00E0H         LINE#         173
  C:00EFH         LINE#         174
  C:00F5H         LINE#         175
  C:00F5H         LINE#         176
  C:00F7H         LINE#         177
  C:0102H         LINE#         178
  C:010AH         LINE#         180
  C:0119H         LINE#         181
  C:0128H         LINE#         182
  C:012CH         LINE#         183
  C:012CH         LINE#         185
  C:0132H         LINE#         186
  C:0135H         LINE#         188
  C:013AH         LINE#         189
  -------         ENDPROC       _LCDDRAWAREA
  -------         PROC          LCDINITIMAGE
  -------         DO            
  D:0004H         SYMBOL        i
  D:0005H         SYMBOL        j
  -------         ENDDO         
  C:03ACH         LINE#         192
  C:03ACH         LINE#         193
  C:03ACH         LINE#         196
  C:03B1H         LINE#         197
  C:03B6H         LINE#         198
  C:03B8H         LINE#         199
  C:03BFH         LINE#         200
  C:03C4H         LINE#         201
  C:03C6H         LINE#         202
  C:03C6H         LINE#         203
  C:03CBH         LINE#         204
  C:03D0H         LINE#         205
  C:03D4H         LINE#         206
  C:03D8H         LINE#         208
  C:03DAH         LINE#         209
  C:03E1H         LINE#         210
  C:03E6H         LINE#         211
  C:03E8H         LINE#         212
  C:03E8H         LINE#         213
  C:03EDH         LINE#         214
  C:03F2H         LINE#         215
  C:03F6H         LINE#         216
  C:03FAH         LINE#         217
  C:03FFH         LINE#         218
  -------         ENDPROC       LCDINITIMAGE
  -------         PROC          _LCDCLEARIMAGE
  D:0003H         SYMBOL        x
  D:0005H         SYMBOL        y
  -------         DO            
  D:0004H         SYMBOL        i
  -------         ENDDO         
BL51 BANKED LINKER/LOCATER V6.05                                                      05/29/2017  18:49:16  PAGE 10


  C:02C7H         LINE#         221
  C:02C9H         LINE#         222
  C:02C9H         LINE#         225
  C:02CEH         LINE#         226
  C:02D3H         LINE#         228
  C:02D9H         LINE#         229
  C:02DBH         LINE#         230
  C:02E6H         LINE#         231
  C:02EDH         LINE#         233
  C:02F2H         LINE#         234
  C:02F7H         LINE#         235
  C:02FDH         LINE#         236
  C:02FDH         LINE#         237
  C:02FFH         LINE#         238
  C:030AH         LINE#         239
  C:0311H         LINE#         241
  C:0316H         LINE#         242
  C:031BH         LINE#         243
  C:031FH         LINE#         244
  C:031FH         LINE#         246
  C:0329H         LINE#         247
  C:0330H         LINE#         249
  C:0335H         LINE#         250
  -------         ENDPROC       _LCDCLEARIMAGE
  -------         PROC          _LCDCLEARAREA
  D:0007H         SYMBOL        x
  D:0005H         SYMBOL        y
  -------         DO            
  C:039CH         SYMBOL        clearDat
  -------         ENDDO         
  C:0530H         LINE#         253
  C:0530H         LINE#         254
  C:0530H         LINE#         259
  -------         ENDPROC       _LCDCLEARAREA
  -------         ENDMOD        LCD12864

  -------         MODULE        ?C?CLDPTR
  C:024BH         PUBLIC        ?C?CLDPTR
  -------         ENDMOD        ?C?CLDPTR

  -------         MODULE        ?C?CSTPTR
  C:0264H         PUBLIC        ?C?CSTPTR
  -------         ENDMOD        ?C?CSTPTR

  -------         MODULE        ?C?ILDPTR
  C:0276H         PUBLIC        ?C?ILDPTR
  -------         ENDMOD        ?C?ILDPTR

  -------         MODULE        ?C?ULSHR
  C:02A1H         PUBLIC        ?C?ULSHR
  -------         ENDMOD        ?C?ULSHR

  -------         MODULE        ?C?LSHL
  C:02B4H         PUBLIC        ?C?LSHL
  -------         ENDMOD        ?C?LSHL

*** WARNING L16: UNCALLED SEGMENT, IGNORED FOR OVERLAY PROCESS
BL51 BANKED LINKER/LOCATER V6.05                                                      05/29/2017  18:49:16  PAGE 11


    SEGMENT: ?PR?LCDSHOWCURSOR?LCD12864

*** WARNING L16: UNCALLED SEGMENT, IGNORED FOR OVERLAY PROCESS
    SEGMENT: ?PR?LCDCANCELCURSOR?LCD12864

*** WARNING L16: UNCALLED SEGMENT, IGNORED FOR OVERLAY PROCESS
    SEGMENT: ?PR?LCDCLEARALL?LCD12864

*** WARNING L16: UNCALLED SEGMENT, IGNORED FOR OVERLAY PROCESS
    SEGMENT: ?PR?_LCDSHOWIMAGE?LCD12864

*** WARNING L16: UNCALLED SEGMENT, IGNORED FOR OVERLAY PROCESS
    SEGMENT: ?PR?_LCDDRAWAREA?LCD12864

*** WARNING L16: UNCALLED SEGMENT, IGNORED FOR OVERLAY PROCESS
    SEGMENT: ?PR?LCDINITIMAGE?LCD12864

*** WARNING L16: UNCALLED SEGMENT, IGNORED FOR OVERLAY PROCESS
    SEGMENT: ?PR?_LCDCLEARIMAGE?LCD12864

*** WARNING L16: UNCALLED SEGMENT, IGNORED FOR OVERLAY PROCESS
    SEGMENT: ?PR?_LCDCLEARAREA?LCD12864

Program Size: data=35.2 xdata=0 code=1388
LINK/LOCATE RUN COMPLETE.  8 WARNING(S),  0 ERROR(S)
